target datalayout = "e-m:e-p270:32:32-p271:32:32-p272:64:64-i64:64-i128:128-f80:128-n8:16:32:64-S128"
target triple = "x86_64-pc-linux-gnu"

%struct.mz_zip_archive = type { i64, i64, i32, i32, i32, i32, i64, ptr, ptr, ptr, ptr, ptr, ptr, ptr, ptr, ptr }
%struct.mz_zip_internal_state_tag = type { %struct.mz_zip_array, %struct.mz_zip_array, %struct.mz_zip_array, i32, i32, i32, ptr, i64, ptr, i64, i64 }
%struct.mz_zip_array = type { ptr, i64, i64, i32 }

; Function Attrs: alwaysinline nounwind uwtable
define internal i32 @mz_zip_set_error(ptr noundef %0, i32 noundef %1) #7 {
  %3 = alloca ptr, align 8
  %4 = alloca i32, align 4
  store ptr %0, ptr %3, align 8
  store i32 %1, ptr %4, align 4
  %5 = load ptr, ptr %3, align 8
  %6 = icmp ne ptr %5, null
  br i1 %6, label %7, label %11

7:                                                ; preds = %2
  %8 = load i32, ptr %4, align 4
  %9 = load ptr, ptr %3, align 8
  %10 = getelementptr inbounds nuw %struct.mz_zip_archive, ptr %9, i32 0, i32 5
  store i32 %8, ptr %10, align 4
  br label %11

11:                                               ; preds = %7, %2
  ret i32 0
}

; Function Attrs: alwaysinline nounwind uwtable
define internal ptr @mz_zip_get_cdh(ptr noundef %0, i32 noundef %1) #7 {
  %3 = alloca ptr, align 8
  %4 = alloca ptr, align 8
  %5 = alloca i32, align 4
  store ptr %0, ptr %4, align 8
  store i32 %1, ptr %5, align 4
  %6 = load ptr, ptr %4, align 8
  %7 = icmp ne ptr %6, null
  br i1 %7, label %8, label %19

8:                                                ; preds = %2
  %9 = load ptr, ptr %4, align 8
  %10 = getelementptr inbounds nuw %struct.mz_zip_archive, ptr %9, i32 0, i32 15
  %11 = load ptr, ptr %10, align 8
  %12 = icmp ne ptr %11, null
  br i1 %12, label %13, label %19

13:                                               ; preds = %8
  %14 = load i32, ptr %5, align 4
  %15 = load ptr, ptr %4, align 8
  %16 = getelementptr inbounds nuw %struct.mz_zip_archive, ptr %15, i32 0, i32 2
  %17 = load i32, ptr %16, align 8
  %18 = icmp uge i32 %14, %17
  br i1 %18, label %19, label %20

19:                                               ; preds = %13, %8, %2
  store ptr null, ptr %3, align 8
  br label %39

20:                                               ; preds = %13
  %21 = load ptr, ptr %4, align 8
  %22 = getelementptr inbounds nuw %struct.mz_zip_archive, ptr %21, i32 0, i32 15
  %23 = load ptr, ptr %22, align 8
  %24 = getelementptr inbounds nuw %struct.mz_zip_internal_state_tag, ptr %23, i32 0, i32 0
  %25 = getelementptr inbounds nuw %struct.mz_zip_array, ptr %24, i32 0, i32 0
  %26 = load ptr, ptr %25, align 8
  %27 = load ptr, ptr %4, align 8
  %28 = getelementptr inbounds nuw %struct.mz_zip_archive, ptr %27, i32 0, i32 15
  %29 = load ptr, ptr %28, align 8
  %30 = getelementptr inbounds nuw %struct.mz_zip_internal_state_tag, ptr %29, i32 0, i32 1
  %31 = getelementptr inbounds nuw %struct.mz_zip_array, ptr %30, i32 0, i32 0
  %32 = load ptr, ptr %31, align 8
  %33 = load i32, ptr %5, align 4
  %34 = zext i32 %33 to i64
  %35 = getelementptr inbounds nuw i32, ptr %32, i64 %34
  %36 = load i32, ptr %35, align 4
  %37 = zext i32 %36 to i64
  %38 = getelementptr inbounds nuw i8, ptr %26, i64 %37
  store ptr %38, ptr %3, align 8
  br label %39

39:                                               ; preds = %20, %19
  %40 = load ptr, ptr %3, align 8
  ret ptr %40
}

; Function Attrs: nounwind uwtable
define i32 @mz_zip_reader_is_file_supported(ptr noundef %0, i32 noundef %1) #0 {
  %3 = alloca i32, align 4
  %4 = alloca ptr, align 8
  %5 = alloca i32, align 4
  %6 = alloca i32, align 4
  %7 = alloca i32, align 4
  %8 = alloca ptr, align 8
  %9 = alloca i32, align 4
  store ptr %0, ptr %4, align 8
  store i32 %1, ptr %5, align 4
  call void @llvm.lifetime.start.p0(i64 4, ptr %6) #13
  call void @llvm.lifetime.start.p0(i64 4, ptr %7) #13
  call void @llvm.lifetime.start.p0(i64 8, ptr %8) #13
  %10 = load ptr, ptr %4, align 8
  %11 = load i32, ptr %5, align 4
  %12 = call ptr @mz_zip_get_cdh(ptr noundef %10, i32 noundef %11)
  store ptr %12, ptr %8, align 8
  %13 = load ptr, ptr %8, align 8
  %14 = icmp ne ptr %13, null
  br i1 %14, label %18, label %15

15:                                               ; preds = %2
  %16 = load ptr, ptr %4, align 8
  %17 = call i32 @mz_zip_set_error(ptr noundef %16, i32 noundef 24)
  store i32 0, ptr %3, align 4
  store i32 1, ptr %9, align 4
  br label %66

18:                                               ; preds = %2
  %19 = load ptr, ptr %8, align 8
  %20 = getelementptr inbounds i8, ptr %19, i64 10
  %21 = getelementptr inbounds i8, ptr %20, i64 0
  %22 = load i8, ptr %21, align 1
  %23 = zext i8 %22 to i32
  %24 = load ptr, ptr %8, align 8
  %25 = getelementptr inbounds i8, ptr %24, i64 10
  %26 = getelementptr inbounds i8, ptr %25, i64 1
  %27 = load i8, ptr %26, align 1
  %28 = zext i8 %27 to i32
  %29 = shl i32 %28, 8
  %30 = or i32 %23, %29
  store i32 %30, ptr %7, align 4
  %31 = load ptr, ptr %8, align 8
  %32 = getelementptr inbounds i8, ptr %31, i64 8
  %33 = getelementptr inbounds i8, ptr %32, i64 0
  %34 = load i8, ptr %33, align 1
  %35 = zext i8 %34 to i32
  %36 = load ptr, ptr %8, align 8
  %37 = getelementptr inbounds i8, ptr %36, i64 8
  %38 = getelementptr inbounds i8, ptr %37, i64 1
  %39 = load i8, ptr %38, align 1
  %40 = zext i8 %39 to i32
  %41 = shl i32 %40, 8
  %42 = or i32 %35, %41
  store i32 %42, ptr %6, align 4
  %43 = load i32, ptr %7, align 4
  %44 = icmp ne i32 %43, 0
  br i1 %44, label %45, label %51

45:                                               ; preds = %18
  %46 = load i32, ptr %7, align 4
  %47 = icmp ne i32 %46, 8
  br i1 %47, label %48, label %51

48:                                               ; preds = %45
  %49 = load ptr, ptr %4, align 8
  %50 = call i32 @mz_zip_set_error(ptr noundef %49, i32 noundef 4)
  store i32 0, ptr %3, align 4
  store i32 1, ptr %9, align 4
  br label %66

51:                                               ; preds = %45, %18
  %52 = load i32, ptr %6, align 4
  %53 = and i32 %52, 65
  %54 = icmp ne i32 %53, 0
  br i1 %54, label %55, label %58

55:                                               ; preds = %51
  %56 = load ptr, ptr %4, align 8
  %57 = call i32 @mz_zip_set_error(ptr noundef %56, i32 noundef 5)
  store i32 0, ptr %3, align 4
  store i32 1, ptr %9, align 4
  br label %66

58:                                               ; preds = %51
  %59 = load i32, ptr %6, align 4
  %60 = and i32 %59, 32
  %61 = icmp ne i32 %60, 0
  br i1 %61, label %62, label %65

62:                                               ; preds = %58
  %63 = load ptr, ptr %4, align 8
  %64 = call i32 @mz_zip_set_error(ptr noundef %63, i32 noundef 6)
  store i32 0, ptr %3, align 4
  store i32 1, ptr %9, align 4
  br label %66

65:                                               ; preds = %58
  store i32 1, ptr %3, align 4
  store i32 1, ptr %9, align 4
  br label %66

66:                                               ; preds = %65, %62, %55, %48, %15
  call void @llvm.lifetime.end.p0(i64 8, ptr %8) #13
  call void @llvm.lifetime.end.p0(i64 4, ptr %7) #13
  call void @llvm.lifetime.end.p0(i64 4, ptr %6) #13
  %67 = load i32, ptr %3, align 4
  ret i32 %67
}