; Function Attrs: mustprogress nofree norecurse nosync nounwind willreturn memory(read, argmem: readwrite, inaccessiblemem: none) uwtable
define range(i32 0, 2) i32 @mz_zip_reader_is_file_supported(ptr noundef captures(address_is_null) %0, i32 noundef %1) local_unnamed_addr #20 {
  %.not.i25 = icmp eq ptr %0, null
  br i1 %.not.i25, label %mz_zip_set_error.exit24, label %3

3:                                                ; preds = %2
  %4 = getelementptr inbounds nuw i8, ptr %0, i64 104
  %5 = load ptr, ptr %4, align 8
  %.not10.i = icmp eq ptr %5, null
  br i1 %.not10.i, label %mz_zip_set_error.exit24.sink.split, label %6

6:                                                ; preds = %3
  %7 = getelementptr inbounds nuw i8, ptr %0, i64 16
  %8 = load i32, ptr %7, align 8
  %.not11.i = icmp ult i32 %1, %8
  br i1 %.not11.i, label %mz_zip_get_cdh.exit, label %mz_zip_set_error.exit24.sink.split

mz_zip_get_cdh.exit:                              ; preds = %6
  %9 = load ptr, ptr %5, align 8
  %.not = icmp eq ptr %9, null
  br i1 %.not, label %mz_zip_set_error.exit24.sink.split, label %10

10:                                               ; preds = %mz_zip_get_cdh.exit
  %11 = getelementptr inbounds nuw i8, ptr %5, i64 32
  %12 = load ptr, ptr %11, align 8
  %13 = zext i32 %1 to i64
  %14 = getelementptr inbounds nuw i32, ptr %12, i64 %13
  %15 = load i32, ptr %14, align 4
  %16 = zext i32 %15 to i64
  %17 = getelementptr inbounds nuw i8, ptr %9, i64 %16
  %18 = getelementptr inbounds nuw i8, ptr %17, i64 10
  %19 = load i8, ptr %18, align 1
  %20 = zext i8 %19 to i32
  %21 = getelementptr inbounds nuw i8, ptr %17, i64 11
  %22 = load i8, ptr %21, align 1
  %23 = zext i8 %22 to i32
  %24 = shl nuw nsw i32 %23, 8
  %25 = or disjoint i32 %24, %20
  %26 = getelementptr inbounds nuw i8, ptr %17, i64 8
  %27 = load i8, ptr %26, align 1
  %28 = zext i8 %27 to i32
  %29 = and i32 %20, 8
  %or.cond.not = icmp eq i32 %29, %25
  br i1 %or.cond.not, label %30, label %mz_zip_set_error.exit24.sink.split

30:                                               ; preds = %10
  %31 = and i32 %28, 65
  %.not17 = icmp eq i32 %31, 0
  br i1 %.not17, label %32, label %mz_zip_set_error.exit24.sink.split

32:                                               ; preds = %30
  %33 = and i32 %28, 32
  %.not18 = icmp eq i32 %33, 0
  br i1 %.not18, label %mz_zip_set_error.exit24, label %mz_zip_set_error.exit24.sink.split

mz_zip_set_error.exit24.sink.split:               ; preds = %32, %30, %10, %mz_zip_get_cdh.exit, %6, %3
  %.sink = phi i32 [ 24, %3 ], [ 24, %6 ], [ 24, %mz_zip_get_cdh.exit ], [ 4, %10 ], [ 5, %30 ], [ 6, %32 ]
  %34 = getelementptr inbounds nuw i8, ptr %0, i64 28
  store i32 %.sink, ptr %34, align 4
  br label %mz_zip_set_error.exit24

mz_zip_set_error.exit24:                          ; preds = %mz_zip_set_error.exit24.sink.split, %2, %32
  %.0 = phi i32 [ 1, %32 ], [ 0, %2 ], [ 0, %mz_zip_set_error.exit24.sink.split ]
  ret i32 %.0
}